target datalayout = "e-m:e-p270:32:32-p271:32:32-p272:64:64-i64:64-i128:128-f80:128-n8:16:32:64-S128"
target triple = "x86_64-unknown-linux-gnu"

%"class.icu_75::UnicodeString" = type { %"class.icu_75::Replaceable", %"union.icu_75::UnicodeString::StackBufferOrFields" }
%"class.icu_75::Replaceable" = type { %"class.icu_75::UObject" }
%"class.icu_75::UObject" = type { ptr }
%"union.icu_75::UnicodeString::StackBufferOrFields" = type { %struct.anon.0, [32 x i8] }
%struct.anon.0 = type { i16, i32, i32, ptr }
%"class.icu_75::TransliteratorAlias" = type { [8 x i8], %"class.icu_75::UnicodeString", %"class.icu_75::UnicodeString", ptr, ptr, i32, i32 }

; Function Attrs: mustprogress uwtable
define void @_ZN6icu_7519TransliteratorAliasC2ERKNS_13UnicodeStringES3_15UTransDirection(ptr noundef nonnull align 8 dereferenceable(160) %this, ptr noundef nonnull align 8 dereferenceable(64) %theID, ptr noundef nonnull align 8 dereferenceable(64) %rules, i32 noundef %dir) unnamed_addr #1 align 2 personality ptr @__gxx_personality_v0 {
entry:
  %this.addr = alloca ptr, align 8
  %theID.addr = alloca ptr, align 8
  %rules.addr = alloca ptr, align 8
  %dir.addr = alloca i32, align 4
  %exn.slot = alloca ptr, align 8
  %ehselector.slot = alloca i32, align 4
  store ptr %this, ptr %this.addr, align 8
  store ptr %theID, ptr %theID.addr, align 8
  store ptr %rules, ptr %rules.addr, align 8
  store i32 %dir, ptr %dir.addr, align 4
  %this1 = load ptr, ptr %this.addr, align 8
  %ID = getelementptr inbounds %"class.icu_75::TransliteratorAlias", ptr %this1, i32 0, i32 1
  %0 = load ptr, ptr %theID.addr, align 8
  call void @_ZN6icu_7513UnicodeStringC1ERKS0_(ptr noundef nonnull align 8 dereferenceable(64) %ID, ptr noundef nonnull align 8 dereferenceable(64) %0)
  %aliasesOrRules = getelementptr inbounds %"class.icu_75::TransliteratorAlias", ptr %this1, i32 0, i32 2
  %1 = load ptr, ptr %rules.addr, align 8
  invoke void @_ZN6icu_7513UnicodeStringC1ERKS0_(ptr noundef nonnull align 8 dereferenceable(64) %aliasesOrRules, ptr noundef nonnull align 8 dereferenceable(64) %1)
          to label %invoke.cont unwind label %lpad

invoke.cont:                                      ; preds = %entry
  %transes = getelementptr inbounds %"class.icu_75::TransliteratorAlias", ptr %this1, i32 0, i32 3
  store ptr null, ptr %transes, align 8
  %compoundFilter = getelementptr inbounds %"class.icu_75::TransliteratorAlias", ptr %this1, i32 0, i32 4
  store ptr null, ptr %compoundFilter, align 8
  %direction = getelementptr inbounds %"class.icu_75::TransliteratorAlias", ptr %this1, i32 0, i32 5
  %2 = load i32, ptr %dir.addr, align 4
  store i32 %2, ptr %direction, align 8
  %type = getelementptr inbounds %"class.icu_75::TransliteratorAlias", ptr %this1, i32 0, i32 6
  store i32 2, ptr %type, align 4
  ret void

lpad:                                             ; preds = %entry
  %3 = landingpad { ptr, i32 }
          cleanup
  %4 = extractvalue { ptr, i32 } %3, 0
  store ptr %4, ptr %exn.slot, align 8
  %5 = extractvalue { ptr, i32 } %3, 1
  store i32 %5, ptr %ehselector.slot, align 4
  call void @_ZN6icu_7513UnicodeStringD1Ev(ptr noundef nonnull align 8 dereferenceable(64) %ID) #9
  br label %eh.resume

eh.resume:                                        ; preds = %lpad
  %exn = load ptr, ptr %exn.slot, align 8
  %sel = load i32, ptr %ehselector.slot, align 4
  %lpad.val = insertvalue { ptr, i32 } poison, ptr %exn, 0
  %lpad.val2 = insertvalue { ptr, i32 } %lpad.val, i32 %sel, 1
  resume { ptr, i32 } %lpad.val2
}