; Function Attrs: mustprogress uwtable
define void @_ZN6icu_7519TransliteratorAliasC2ERKNS_13UnicodeStringES3_15UTransDirection(ptr noundef nonnull align 8 dereferenceable(160) %this, ptr noundef nonnull align 8 dereferenceable(64) %theID, ptr noundef nonnull align 8 dereferenceable(64) %rules, i32 noundef %dir) unnamed_addr #1 align 2 personality ptr @__gxx_personality_v0 {
entry:
  %ID = getelementptr inbounds i8, ptr %this, i64 8
  tail call void @_ZN6icu_7513UnicodeStringC1ERKS0_(ptr noundef nonnull align 8 dereferenceable(64) %ID, ptr noundef nonnull align 8 dereferenceable(64) %theID)
  %aliasesOrRules = getelementptr inbounds i8, ptr %this, i64 72
  invoke void @_ZN6icu_7513UnicodeStringC1ERKS0_(ptr noundef nonnull align 8 dereferenceable(64) %aliasesOrRules, ptr noundef nonnull align 8 dereferenceable(64) %rules)
          to label %invoke.cont unwind label %lpad

invoke.cont:                                      ; preds = %entry
  %transes = getelementptr inbounds i8, ptr %this, i64 136
  %direction = getelementptr inbounds i8, ptr %this, i64 152
  tail call void @llvm.memset.p0.i64(ptr noundef nonnull align 8 dereferenceable(16) %transes, i8 0, i64 16, i1 false)
  store i32 %dir, ptr %direction, align 8
  %type = getelementptr inbounds i8, ptr %this, i64 156
  store i32 2, ptr %type, align 4
  ret void

lpad:                                             ; preds = %entry
  %0 = landingpad { ptr, i32 }
          cleanup
  tail call void @_ZN6icu_7513UnicodeStringD1Ev(ptr noundef nonnull align 8 dereferenceable(64) %ID) #15
  resume { ptr, i32 } %0
}